; Function Attrs: nounwind uwtable
define hidden range(i32 0, 2) i32 @SSL_set_cipher_list(ptr noundef %0, ptr noundef %1) local_unnamed_addr #0 {
  %3 = getelementptr inbounds nuw i8, ptr %0, i64 232
  %4 = load ptr, ptr %3, align 8, !tbaa !97
  %5 = load ptr, ptr %4, align 8, !tbaa !13
  %6 = getelementptr inbounds nuw i8, ptr %0, i64 120
  %7 = getelementptr inbounds nuw i8, ptr %0, i64 128
  %8 = tail call ptr @ssl_create_cipher_list(ptr noundef %5, ptr noundef nonnull %6, ptr noundef nonnull %7, ptr noundef %1) #21
  %9 = icmp eq ptr %8, null
  br i1 %9, label %14, label %10

10:                                               ; preds = %2
  %11 = tail call i64 @sk_num(ptr noundef nonnull %8) #21
  %12 = icmp eq i64 %11, 0
  br i1 %12, label %13, label %14

13:                                               ; preds = %10
  tail call void @ERR_put_error(i32 noundef 16, i32 noundef 0, i32 noundef 177, ptr noundef nonnull @.str, i32 noundef 1399) #21
  br label %14

14:                                               ; preds = %10, %2, %13
  %.0 = phi i32 [ 0, %13 ], [ 0, %2 ], [ 1, %10 ]
  ret i32 %.0
}